; Function Attrs: mustprogress uwtable
define hidden noundef i32 @_ZN6google8protobuf2io18IstreamInputStream25CopyingIstreamInputStream4ReadEPvi(ptr noundef nonnull readonly align 8 captures(none) dereferenceable(16) %0, ptr noundef %1, i32 noundef %2) unnamed_addr #3 align 2 {
  %4 = getelementptr inbounds nuw i8, ptr %0, i64 8
  %5 = load ptr, ptr %4, align 8, !tbaa !30
  %6 = sext i32 %2 to i64
  %7 = tail call noundef nonnull align 8 dereferenceable(16) ptr @_ZNSi4readEPcl(ptr noundef nonnull align 8 dereferenceable(16) %5, ptr noundef %1, i64 noundef %6)
  %8 = load ptr, ptr %4, align 8, !tbaa !30
  %9 = getelementptr inbounds nuw i8, ptr %8, i64 8
  %10 = load i64, ptr %9, align 8, !tbaa !34
  %11 = trunc i64 %10 to i32
  %12 = icmp eq i32 %11, 0
  br i1 %12, label %13, label %24

13:                                               ; preds = %3
  %14 = load ptr, ptr %8, align 8, !tbaa !3
  %15 = getelementptr i8, ptr %14, i64 -24
  %16 = load i64, ptr %15, align 8
  %17 = getelementptr inbounds i8, ptr %8, i64 %16
  %18 = getelementptr inbounds nuw i8, ptr %17, i64 32
  %19 = load i32, ptr %18, align 8, !tbaa !37
  %20 = and i32 %19, 5
  %21 = icmp eq i32 %20, 0
  %22 = and i32 %19, 2
  %23 = icmp ne i32 %22, 0
  %or.cond = or i1 %21, %23
  br i1 %or.cond, label %24, label %25

24:                                               ; preds = %13, %3
  br label %25

25:                                               ; preds = %13, %24
  %.0 = phi i32 [ %11, %24 ], [ -1, %13 ]
  ret i32 %.0
}